target datalayout = "e-m:e-p270:32:32-p271:32:32-p272:64:64-i64:64-i128:128-f80:128-n8:16:32:64-S128"
target triple = "x86_64-pc-linux-gnu"

%struct.lzma_stream = type { ptr, i64, i64, ptr, i64, i64, ptr, ptr, ptr, ptr, ptr, ptr, i64, i64, i64, i64, i32, i32 }
%struct.archive_write_filter = type { i64, ptr, ptr, ptr, ptr, ptr, ptr, ptr, ptr, ptr, ptr, i32, i32, i32, i32 }
%struct.private_data = type { i32, i32, %struct.lzma_stream, [2 x %struct.lzma_filter], %struct.lzma_options_lzma, i64, ptr, i64, i64, i32 }
%struct.lzma_filter = type { i64, ptr }
%struct.lzma_options_lzma = type { i32, ptr, i32, i32, i32, i32, i32, i32, i32, i32, i32, i32, i32, i32, i32, i32, i32, i32, i32, i32, i32, i32, ptr, ptr }

; Function Attrs: nounwind uwtable
define internal i32 @archive_compressor_xz_write(ptr noundef %0, ptr noundef %1, i64 noundef %2) #0 {
  %4 = alloca i32, align 4
  %5 = alloca ptr, align 8
  %6 = alloca ptr, align 8
  %7 = alloca i64, align 8
  %8 = alloca ptr, align 8
  %9 = alloca i32, align 4
  %10 = alloca i32, align 4
  store ptr %0, ptr %5, align 8, !tbaa !11
  store ptr %1, ptr %6, align 8, !tbaa !69
  store i64 %2, ptr %7, align 8, !tbaa !35
  call void @llvm.lifetime.start.p0(i64 8, ptr %8) #11
  %11 = load ptr, ptr %5, align 8, !tbaa !11
  %12 = getelementptr inbounds nuw %struct.archive_write_filter, ptr %11, i32 0, i32 9
  %13 = load ptr, ptr %12, align 8, !tbaa !23
  store ptr %13, ptr %8, align 8, !tbaa !21
  call void @llvm.lifetime.start.p0(i64 4, ptr %9) #11
  %14 = load i64, ptr %7, align 8, !tbaa !35
  %15 = load ptr, ptr %8, align 8, !tbaa !21
  %16 = getelementptr inbounds nuw %struct.private_data, ptr %15, i32 0, i32 5
  %17 = load i64, ptr %16, align 8, !tbaa !66
  %18 = add i64 %17, %14
  store i64 %18, ptr %16, align 8, !tbaa !66
  %19 = load ptr, ptr %5, align 8, !tbaa !11
  %20 = getelementptr inbounds nuw %struct.archive_write_filter, ptr %19, i32 0, i32 11
  %21 = load i32, ptr %20, align 8, !tbaa !13
  %22 = icmp eq i32 %21, 9
  br i1 %22, label %23, label %32

23:                                               ; preds = %3
  %24 = load ptr, ptr %6, align 8, !tbaa !69
  %25 = load i64, ptr %7, align 8, !tbaa !35
  %26 = load ptr, ptr %8, align 8, !tbaa !21
  %27 = getelementptr inbounds nuw %struct.private_data, ptr %26, i32 0, i32 9
  %28 = load i32, ptr %27, align 8, !tbaa !65
  %29 = call i32 @lzma_crc32(ptr noundef %24, i64 noundef %25, i32 noundef %28) #14
  %30 = load ptr, ptr %8, align 8, !tbaa !21
  %31 = getelementptr inbounds nuw %struct.private_data, ptr %30, i32 0, i32 9
  store i32 %29, ptr %31, align 8, !tbaa !65
  br label %32

32:                                               ; preds = %23, %3
  %33 = load ptr, ptr %6, align 8, !tbaa !69
  %34 = load ptr, ptr %8, align 8, !tbaa !21
  %35 = getelementptr inbounds nuw %struct.private_data, ptr %34, i32 0, i32 2
  %36 = getelementptr inbounds nuw %struct.lzma_stream, ptr %35, i32 0, i32 0
  store ptr %33, ptr %36, align 8, !tbaa !70
  %37 = load i64, ptr %7, align 8, !tbaa !35
  %38 = load ptr, ptr %8, align 8, !tbaa !21
  %39 = getelementptr inbounds nuw %struct.private_data, ptr %38, i32 0, i32 2
  %40 = getelementptr inbounds nuw %struct.lzma_stream, ptr %39, i32 0, i32 1
  store i64 %37, ptr %40, align 8, !tbaa !71
  %41 = load ptr, ptr %5, align 8, !tbaa !11
  %42 = load ptr, ptr %8, align 8, !tbaa !21
  %43 = call i32 @drive_compressor(ptr noundef %41, ptr noundef %42, i32 noundef 0)
  store i32 %43, ptr %9, align 4, !tbaa !9
  %44 = icmp ne i32 %43, 0
  br i1 %44, label %45, label %47

45:                                               ; preds = %32
  %46 = load i32, ptr %9, align 4, !tbaa !9
  store i32 %46, ptr %4, align 4
  store i32 1, ptr %10, align 4
  br label %48

47:                                               ; preds = %32
  store i32 0, ptr %4, align 4
  store i32 1, ptr %10, align 4
  br label %48

48:                                               ; preds = %47, %45
  call void @llvm.lifetime.end.p0(i64 4, ptr %9) #11
  call void @llvm.lifetime.end.p0(i64 8, ptr %8) #11
  %49 = load i32, ptr %4, align 4
  ret i32 %49
}