; Function Attrs: nounwind uwtable
define internal range(i32 -30, 1) i32 @archive_compressor_xz_write(ptr noundef readonly captures(none) %0, ptr noundef %1, i64 noundef %2) #0 {
  %4 = getelementptr inbounds nuw i8, ptr %0, i64 72
  %5 = load ptr, ptr %4, align 8, !tbaa !14
  %6 = getelementptr inbounds nuw i8, ptr %5, i64 288
  %7 = load i64, ptr %6, align 8, !tbaa !65
  %8 = add i64 %7, %2
  store i64 %8, ptr %6, align 8, !tbaa !65
  %9 = getelementptr inbounds nuw i8, ptr %0, i64 88
  %10 = load i32, ptr %9, align 8, !tbaa !25
  %11 = icmp eq i32 %10, 9
  br i1 %11, label %12, label %16

12:                                               ; preds = %3
  %13 = getelementptr inbounds nuw i8, ptr %5, i64 320
  %14 = load i32, ptr %13, align 8, !tbaa !61
  %15 = tail call i32 @lzma_crc32(ptr noundef %1, i64 noundef %2, i32 noundef %14) #16
  store i32 %15, ptr %13, align 8, !tbaa !61
  br label %16

16:                                               ; preds = %12, %3
  %17 = getelementptr inbounds nuw i8, ptr %5, i64 8
  store ptr %1, ptr %17, align 8, !tbaa !68
  %18 = getelementptr inbounds nuw i8, ptr %5, i64 16
  store i64 %2, ptr %18, align 8, !tbaa !69
  %19 = tail call fastcc i32 @drive_compressor(ptr noundef nonnull %0, ptr noundef nonnull %5, i32 noundef 0)
  ret i32 %19
}